; Function Attrs: mustprogress uwtable
define hidden void @_ZN19OpenColorIO_v2_5dev16CTFReaderInfoElt3endEv(ptr noundef nonnull align 8 dereferenceable(216) %0) unnamed_addr #4 align 2 {
  %2 = getelementptr inbounds nuw i8, ptr %0, i64 80
  %3 = load ptr, ptr %2, align 8, !tbaa !75
  %4 = icmp eq ptr %3, null
  br i1 %4, label %.thread, label %5

5:                                                ; preds = %1
  %6 = tail call ptr @__dynamic_cast(ptr nonnull %3, ptr nonnull @_ZTIN19OpenColorIO_v2_5dev21XmlReaderContainerEltE, ptr nonnull @_ZTIN19OpenColorIO_v2_5dev21CTFReaderTransformEltE, i64 0) #33
  %.not = icmp eq ptr %6, null
  br i1 %.not, label %.thread, label %7

7:                                                ; preds = %5
  %8 = getelementptr inbounds nuw i8, ptr %0, i64 96
  %9 = getelementptr inbounds nuw i8, ptr %6, i64 80
  %10 = load ptr, ptr %9, align 8, !tbaa !37
  %11 = getelementptr inbounds nuw i8, ptr %10, i64 160
  %12 = tail call noundef nonnull align 8 dereferenceable(120) ptr @_ZN19OpenColorIO_v2_5dev18FormatMetadataImplaSERKS0_(ptr noundef nonnull align 8 dereferenceable(120) %11, ptr noundef nonnull align 8 dereferenceable(120) %8)
  br label %.thread

.thread:                                          ; preds = %1, %7, %5
  ret void
}